target datalayout = "e-m:e-p270:32:32-p271:32:32-p272:64:64-i64:64-i128:128-f80:128-n8:16:32:64-S128"
target triple = "x86_64-pc-linux-gnu"

%"class.std::__shared_count" = type { ptr }
%"class.toku::lock_request" = type { i64, i64, i64, ptr, ptr, %struct.__toku_dbt, %struct.__toku_dbt, i32, ptr, i32, i32, %"class.std::shared_ptr.0", i8, ptr, ptr, ptr, ptr, ptr, %"class.std::function" }
%struct.__toku_dbt = type { ptr, i64, i64, i32 }
%"class.std::shared_ptr.0" = type { %"class.std::__shared_ptr.1" }
%"class.std::__shared_ptr.1" = type { ptr, %"class.std::__shared_count" }
%"class.std::function" = type { %"class.std::_Function_base", ptr }
%"class.std::_Function_base" = type { %"union.std::_Any_data", ptr }
%"union.std::_Any_data" = type { %"union.std::_Nocopy_types" }
%"union.std::_Nocopy_types" = type { { i64, i64 } }

; Function Attrs: mustprogress uwtable
define void @_ZN4toku12lock_request13get_conflictsEPNS_9txnid_setE(ptr noundef nonnull align 8 dereferenceable(224) %0, ptr noundef %1) #0 align 2 {
  %3 = alloca ptr, align 8
  %4 = alloca ptr, align 8
  %5 = alloca i8, align 1
  store ptr %0, ptr %3, align 8, !tbaa !4
  store ptr %1, ptr %4, align 8, !tbaa !57
  %6 = load ptr, ptr %3, align 8
  call void @llvm.lifetime.start.p0(i64 1, ptr %5) #17
  %7 = getelementptr inbounds nuw %"class.toku::lock_request", ptr %6, i32 0, i32 7
  %8 = load i32, ptr %7, align 8, !tbaa !33
  %9 = icmp eq i32 %8, 2
  %10 = zext i1 %9 to i8
  store i8 %10, ptr %5, align 1, !tbaa !51
  %11 = getelementptr inbounds nuw %"class.toku::lock_request", ptr %6, i32 0, i32 8
  %12 = load ptr, ptr %11, align 8, !tbaa !34
  %13 = load i8, ptr %5, align 1, !tbaa !51, !range !53, !noundef !54
  %14 = trunc i8 %13 to i1
  %15 = getelementptr inbounds nuw %"class.toku::lock_request", ptr %6, i32 0, i32 0
  %16 = load i64, ptr %15, align 8, !tbaa !11
  %17 = getelementptr inbounds nuw %"class.toku::lock_request", ptr %6, i32 0, i32 3
  %18 = load ptr, ptr %17, align 8, !tbaa !31
  %19 = getelementptr inbounds nuw %"class.toku::lock_request", ptr %6, i32 0, i32 4
  %20 = load ptr, ptr %19, align 8, !tbaa !32
  %21 = load ptr, ptr %4, align 8, !tbaa !57
  call void @_ZN4toku8locktree13get_conflictsEbmPK10__toku_dbtS3_PNS_9txnid_setE(ptr noundef nonnull align 8 dereferenceable(400) %12, i1 noundef zeroext %14, i64 noundef %16, ptr noundef %18, ptr noundef %20, ptr noundef %21)
  call void @llvm.lifetime.end.p0(i64 1, ptr %5) #17
  ret void
}