; Function Attrs: mustprogress uwtable
define void @_ZN4toku12lock_request13get_conflictsEPNS_9txnid_setE(ptr noundef nonnull readonly align 8 captures(none) dereferenceable(224) %0, ptr noundef %1) local_unnamed_addr #0 align 2 {
  %3 = getelementptr inbounds nuw i8, ptr %0, i64 104
  %4 = load i32, ptr %3, align 8, !tbaa !4
  %5 = icmp eq i32 %4, 2
  %6 = getelementptr inbounds nuw i8, ptr %0, i64 112
  %7 = load ptr, ptr %6, align 8, !tbaa !41
  %8 = load i64, ptr %0, align 8, !tbaa !42
  %9 = getelementptr inbounds nuw i8, ptr %0, i64 24
  %10 = load ptr, ptr %9, align 8, !tbaa !43
  %11 = getelementptr inbounds nuw i8, ptr %0, i64 32
  %12 = load ptr, ptr %11, align 8, !tbaa !44
  tail call void @_ZN4toku8locktree13get_conflictsEbmPK10__toku_dbtS3_PNS_9txnid_setE(ptr noundef nonnull align 8 dereferenceable(400) %7, i1 noundef zeroext %5, i64 noundef %8, ptr noundef %10, ptr noundef %12, ptr noundef %1)
  ret void
}